target datalayout = "e-m:e-p270:32:32-p271:32:32-p272:64:64-i64:64-i128:128-f80:128-n8:16:32:64-S128"
target triple = "x86_64-pc-linux-gnu"

@stderr = external global ptr, align 8
@.str = private unnamed_addr constant [58 x i8] c"integer overflow when trying to allocate %zu * %zu bytes\0A\00", align 1
@.str.1 = private unnamed_addr constant [49 x i8] c"out of memory when trying to allocate %zu bytes\0A\00", align 1

; Function Attrs: inlinehint nounwind uwtable
define internal ptr @gv_calloc(i64 noundef %0, i64 noundef %1) #2 {
  %3 = alloca i64, align 8
  %4 = alloca i64, align 8
  %5 = alloca ptr, align 8
  store i64 %0, ptr %3, align 8, !tbaa !20
  store i64 %1, ptr %4, align 8, !tbaa !20
  %6 = load i64, ptr %3, align 8, !tbaa !20
  %7 = icmp ugt i64 %6, 0
  br i1 %7, label %8, label %18

8:                                                ; preds = %2
  %9 = load i64, ptr %3, align 8, !tbaa !20
  %10 = udiv i64 -1, %9
  %11 = load i64, ptr %4, align 8, !tbaa !20
  %12 = icmp ult i64 %10, %11
  br i1 %12, label %13, label %18

13:                                               ; preds = %8
  %14 = load ptr, ptr @stderr, align 8, !tbaa !22
  %15 = load i64, ptr %3, align 8, !tbaa !20
  %16 = load i64, ptr %4, align 8, !tbaa !20
  %17 = call i32 (ptr, ptr, ...) @fprintf(ptr noundef %14, ptr noundef @.str, i64 noundef %15, i64 noundef %16) #8
  call void @graphviz_exit(i32 noundef 1) #9
  unreachable

18:                                               ; preds = %8, %2
  call void @llvm.lifetime.start.p0(i64 8, ptr %5) #8
  %19 = load i64, ptr %3, align 8, !tbaa !20
  %20 = load i64, ptr %4, align 8, !tbaa !20
  %21 = call noalias ptr @calloc(i64 noundef %19, i64 noundef %20) #10
  store ptr %21, ptr %5, align 8, !tbaa !24
  %22 = load i64, ptr %3, align 8, !tbaa !20
  %23 = icmp ugt i64 %22, 0
  br i1 %23, label %24, label %36

24:                                               ; preds = %18
  %25 = load i64, ptr %4, align 8, !tbaa !20
  %26 = icmp ugt i64 %25, 0
  br i1 %26, label %27, label %36

27:                                               ; preds = %24
  %28 = load ptr, ptr %5, align 8, !tbaa !24
  %29 = icmp eq ptr %28, null
  br i1 %29, label %30, label %36

30:                                               ; preds = %27
  %31 = load ptr, ptr @stderr, align 8, !tbaa !22
  %32 = load i64, ptr %3, align 8, !tbaa !20
  %33 = load i64, ptr %4, align 8, !tbaa !20
  %34 = mul i64 %32, %33
  %35 = call i32 (ptr, ptr, ...) @fprintf(ptr noundef %31, ptr noundef @.str.1, i64 noundef %34) #8
  call void @graphviz_exit(i32 noundef 1) #9
  unreachable

36:                                               ; preds = %27, %24, %18
  %37 = load ptr, ptr %5, align 8, !tbaa !24
  call void @llvm.lifetime.end.p0(i64 8, ptr %5) #8
  ret ptr %37
}

; Function Attrs: nounwind uwtable
define ptr @call_tri(i32 noundef %0, ptr noundef %1) #0 {
  %3 = alloca i32, align 4
  %4 = alloca ptr, align 8
  %5 = alloca double, align 8
  %6 = alloca i32, align 4
  %7 = alloca i32, align 4
  %8 = alloca i32, align 4
  %9 = alloca ptr, align 8
  %10 = alloca ptr, align 8
  %11 = alloca ptr, align 8
  %12 = alloca ptr, align 8
  %13 = alloca ptr, align 8
  %14 = alloca i32, align 4
  store i32 %0, ptr %3, align 4, !tbaa !3
  store ptr %1, ptr %4, align 8, !tbaa !7
  call void @llvm.lifetime.start.p0(i64 8, ptr %5) #8
  store double 1.000000e+00, ptr %5, align 8, !tbaa !10
  call void @llvm.lifetime.start.p0(i64 4, ptr %6) #8
  call void @llvm.lifetime.start.p0(i64 4, ptr %7) #8
  call void @llvm.lifetime.start.p0(i64 4, ptr %8) #8
  call void @llvm.lifetime.start.p0(i64 8, ptr %9) #8
  call void @llvm.lifetime.start.p0(i64 8, ptr %10) #8
  call void @llvm.lifetime.start.p0(i64 8, ptr %11) #8
  store ptr null, ptr %11, align 8, !tbaa !12
  call void @llvm.lifetime.start.p0(i64 8, ptr %12) #8
  %15 = load i32, ptr %3, align 4, !tbaa !3
  %16 = sext i32 %15 to i64
  %17 = call ptr @gv_calloc(i64 noundef %16, i64 noundef 8)
  store ptr %17, ptr %12, align 8, !tbaa !7
  call void @llvm.lifetime.start.p0(i64 8, ptr %13) #8
  %18 = load i32, ptr %3, align 4, !tbaa !3
  %19 = sext i32 %18 to i64
  %20 = call ptr @gv_calloc(i64 noundef %19, i64 noundef 8)
  store ptr %20, ptr %13, align 8, !tbaa !7
  call void @llvm.lifetime.start.p0(i64 4, ptr %14) #8
  store i32 0, ptr %14, align 4, !tbaa !3
  store i32 0, ptr %6, align 4, !tbaa !3
  br label %21

21:                                               ; preds = %47, %2
  %22 = load i32, ptr %6, align 4, !tbaa !3
  %23 = load i32, ptr %3, align 4, !tbaa !3
  %24 = icmp slt i32 %22, %23
  br i1 %24, label %25, label %50

25:                                               ; preds = %21
  %26 = load ptr, ptr %4, align 8, !tbaa !7
  %27 = load i32, ptr %6, align 4, !tbaa !3
  %28 = mul nsw i32 %27, 2
  %29 = sext i32 %28 to i64
  %30 = getelementptr inbounds double, ptr %26, i64 %29
  %31 = load double, ptr %30, align 8, !tbaa !10
  %32 = load ptr, ptr %12, align 8, !tbaa !7
  %33 = load i32, ptr %6, align 4, !tbaa !3
  %34 = sext i32 %33 to i64
  %35 = getelementptr inbounds double, ptr %32, i64 %34
  store double %31, ptr %35, align 8, !tbaa !10
  %36 = load ptr, ptr %4, align 8, !tbaa !7
  %37 = load i32, ptr %6, align 4, !tbaa !3
  %38 = mul nsw i32 %37, 2
  %39 = add nsw i32 %38, 1
  %40 = sext i32 %39 to i64
  %41 = getelementptr inbounds double, ptr %36, i64 %40
  %42 = load double, ptr %41, align 8, !tbaa !10
  %43 = load ptr, ptr %13, align 8, !tbaa !7
  %44 = load i32, ptr %6, align 4, !tbaa !3
  %45 = sext i32 %44 to i64
  %46 = getelementptr inbounds double, ptr %43, i64 %45
  store double %42, ptr %46, align 8, !tbaa !10
  br label %47

47:                                               ; preds = %25
  %48 = load i32, ptr %6, align 4, !tbaa !3
  %49 = add nsw i32 %48, 1
  store i32 %49, ptr %6, align 4, !tbaa !3
  br label %21, !llvm.loop !14

50:                                               ; preds = %21
  %51 = load i32, ptr %3, align 4, !tbaa !3
  %52 = icmp sgt i32 %51, 2
  br i1 %52, label %53, label %58

53:                                               ; preds = %50
  %54 = load ptr, ptr %12, align 8, !tbaa !7
  %55 = load ptr, ptr %13, align 8, !tbaa !7
  %56 = load i32, ptr %3, align 4, !tbaa !3
  %57 = call ptr @delaunay_tri(ptr noundef %54, ptr noundef %55, i32 noundef %56, ptr noundef %14)
  store ptr %57, ptr %11, align 8, !tbaa !12
  br label %58

58:                                               ; preds = %53, %50
  %59 = load i32, ptr %3, align 4, !tbaa !3
  %60 = load i32, ptr %3, align 4, !tbaa !3
  %61 = call ptr @SparseMatrix_new(i32 noundef %59, i32 noundef %60, i32 noundef 1, i32 noundef 1, i32 noundef 1)
  store ptr %61, ptr %9, align 8, !tbaa !16
  store i32 0, ptr %6, align 4, !tbaa !3
  br label %62

62:                                               ; preds = %84, %58
  %63 = load i32, ptr %6, align 4, !tbaa !3
  %64 = load i32, ptr %14, align 4, !tbaa !3
  %65 = icmp slt i32 %63, %64
  br i1 %65, label %66, label %87

66:                                               ; preds = %62
  %67 = load ptr, ptr %11, align 8, !tbaa !12
  %68 = load i32, ptr %6, align 4, !tbaa !3
  %69 = mul nsw i32 %68, 2
  %70 = sext i32 %69 to i64
  %71 = getelementptr inbounds i32, ptr %67, i64 %70
  %72 = load i32, ptr %71, align 4, !tbaa !3
  store i32 %72, ptr %7, align 4, !tbaa !3
  %73 = load ptr, ptr %11, align 8, !tbaa !12
  %74 = load i32, ptr %6, align 4, !tbaa !3
  %75 = mul nsw i32 %74, 2
  %76 = add nsw i32 %75, 1
  %77 = sext i32 %76 to i64
  %78 = getelementptr inbounds i32, ptr %73, i64 %77
  %79 = load i32, ptr %78, align 4, !tbaa !3
  store i32 %79, ptr %8, align 4, !tbaa !3
  %80 = load ptr, ptr %9, align 8, !tbaa !16
  %81 = load i32, ptr %7, align 4, !tbaa !3
  %82 = load i32, ptr %8, align 4, !tbaa !3
  %83 = call ptr @SparseMatrix_coordinate_form_add_entry(ptr noundef %80, i32 noundef %81, i32 noundef %82, ptr noundef %5)
  br label %84

84:                                               ; preds = %66
  %85 = load i32, ptr %6, align 4, !tbaa !3
  %86 = add nsw i32 %85, 1
  store i32 %86, ptr %6, align 4, !tbaa !3
  br label %62, !llvm.loop !18

87:                                               ; preds = %62
  %88 = load i32, ptr %3, align 4, !tbaa !3
  %89 = icmp eq i32 %88, 2
  br i1 %89, label %90, label %95

90:                                               ; preds = %87
  store i32 0, ptr %7, align 4, !tbaa !3
  store i32 1, ptr %8, align 4, !tbaa !3
  %91 = load ptr, ptr %9, align 8, !tbaa !16
  %92 = load i32, ptr %7, align 4, !tbaa !3
  %93 = load i32, ptr %8, align 4, !tbaa !3
  %94 = call ptr @SparseMatrix_coordinate_form_add_entry(ptr noundef %91, i32 noundef %92, i32 noundef %93, ptr noundef %5)
  br label %95

95:                                               ; preds = %90, %87
  store i32 0, ptr %6, align 4, !tbaa !3
  br label %96

96:                                               ; preds = %105, %95
  %97 = load i32, ptr %6, align 4, !tbaa !3
  %98 = load i32, ptr %3, align 4, !tbaa !3
  %99 = icmp slt i32 %97, %98
  br i1 %99, label %100, label %108

100:                                              ; preds = %96
  %101 = load ptr, ptr %9, align 8, !tbaa !16
  %102 = load i32, ptr %6, align 4, !tbaa !3
  %103 = load i32, ptr %6, align 4, !tbaa !3
  %104 = call ptr @SparseMatrix_coordinate_form_add_entry(ptr noundef %101, i32 noundef %102, i32 noundef %103, ptr noundef %5)
  br label %105

105:                                              ; preds = %100
  %106 = load i32, ptr %6, align 4, !tbaa !3
  %107 = add nsw i32 %106, 1
  store i32 %107, ptr %6, align 4, !tbaa !3
  br label %96, !llvm.loop !19

108:                                              ; preds = %96
  %109 = load ptr, ptr %9, align 8, !tbaa !16
  %110 = call ptr @SparseMatrix_from_coordinate_format(ptr noundef %109)
  store ptr %110, ptr %10, align 8, !tbaa !16
  %111 = load ptr, ptr %9, align 8, !tbaa !16
  call void @SparseMatrix_delete(ptr noundef %111)
  %112 = load ptr, ptr %10, align 8, !tbaa !16
  %113 = call ptr @SparseMatrix_symmetrize(ptr noundef %112, i1 noundef zeroext false)
  store ptr %113, ptr %9, align 8, !tbaa !16
  %114 = load ptr, ptr %10, align 8, !tbaa !16
  call void @SparseMatrix_delete(ptr noundef %114)
  %115 = load ptr, ptr %9, align 8, !tbaa !16
  store ptr %115, ptr %10, align 8, !tbaa !16
  %116 = load ptr, ptr %11, align 8, !tbaa !12
  call void @free(ptr noundef %116) #8
  %117 = load ptr, ptr %12, align 8, !tbaa !7
  call void @free(ptr noundef %117) #8
  %118 = load ptr, ptr %13, align 8, !tbaa !7
  call void @free(ptr noundef %118) #8
  %119 = load ptr, ptr %10, align 8, !tbaa !16
  call void @llvm.lifetime.end.p0(i64 4, ptr %14) #8
  call void @llvm.lifetime.end.p0(i64 8, ptr %13) #8
  call void @llvm.lifetime.end.p0(i64 8, ptr %12) #8
  call void @llvm.lifetime.end.p0(i64 8, ptr %11) #8
  call void @llvm.lifetime.end.p0(i64 8, ptr %10) #8
  call void @llvm.lifetime.end.p0(i64 8, ptr %9) #8
  call void @llvm.lifetime.end.p0(i64 4, ptr %8) #8
  call void @llvm.lifetime.end.p0(i64 4, ptr %7) #8
  call void @llvm.lifetime.end.p0(i64 4, ptr %6) #8
  call void @llvm.lifetime.end.p0(i64 8, ptr %5) #8
  ret ptr %119
}