; Function Attrs: nounwind uwtable
define ptr @call_tri(i32 noundef %0, ptr noundef readonly captures(none) %1) local_unnamed_addr #0 {
  %3 = alloca double, align 8
  %4 = alloca i32, align 4
  call void @llvm.lifetime.start.p0(i64 8, ptr nonnull %3) #9
  store double 1.000000e+00, ptr %3, align 8, !tbaa !3
  %5 = sext i32 %0 to i64
  %mul.ov.i = icmp slt i32 %0, 0
  br i1 %mul.ov.i, label %6, label %9

6:                                                ; preds = %2
  %7 = load ptr, ptr @stderr, align 8, !tbaa !7
  %8 = tail call i32 (ptr, ptr, ...) @fprintf(ptr noundef %7, ptr noundef nonnull @.str, i64 noundef range(i64 -2147483648, 2147483648) %5, i64 noundef 8) #10
  tail call fastcc void @graphviz_exit() #11
  unreachable

9:                                                ; preds = %2
  %10 = icmp ne i32 %0, 0
  %11 = tail call noalias ptr @calloc(i64 noundef range(i64 -2147483648, 2147483648) %5, i64 noundef 8) #12
  %12 = icmp eq ptr %11, null
  %or.cond3.i = and i1 %10, %12
  br i1 %or.cond3.i, label %13, label %gv_calloc.exit

13:                                               ; preds = %9
  %14 = load ptr, ptr @stderr, align 8, !tbaa !7
  %15 = shl nuw nsw i64 %5, 3
  %16 = tail call i32 (ptr, ptr, ...) @fprintf(ptr noundef %14, ptr noundef nonnull @.str.1, i64 noundef %15) #10
  tail call fastcc void @graphviz_exit() #11
  unreachable

gv_calloc.exit:                                   ; preds = %9
  %17 = tail call noalias ptr @calloc(i64 noundef range(i64 -2147483648, 2147483648) %5, i64 noundef 8) #12
  %18 = icmp eq ptr %17, null
  %or.cond3.i49 = and i1 %10, %18
  br i1 %or.cond3.i49, label %19, label %gv_calloc.exit50

19:                                               ; preds = %gv_calloc.exit
  %20 = load ptr, ptr @stderr, align 8, !tbaa !7
  %21 = shl nuw nsw i64 %5, 3
  %22 = tail call i32 (ptr, ptr, ...) @fprintf(ptr noundef %20, ptr noundef nonnull @.str.1, i64 noundef %21) #10
  tail call fastcc void @graphviz_exit() #11
  unreachable

gv_calloc.exit50:                                 ; preds = %gv_calloc.exit
  call void @llvm.lifetime.start.p0(i64 4, ptr nonnull %4) #9
  store i32 0, ptr %4, align 4, !tbaa !10
  %.not = icmp eq i32 %0, 0
  br i1 %.not, label %._crit_edge.thread, label %.lr.ph.preheader

.lr.ph.preheader:                                 ; preds = %gv_calloc.exit50
  %wide.trip.count = zext nneg i32 %0 to i64
  br label %.lr.ph

.lr.ph:                                           ; preds = %.lr.ph.preheader, %.lr.ph
  %indvars.iv = phi i64 [ 0, %.lr.ph.preheader ], [ %indvars.iv.next, %.lr.ph ]
  %23 = shl nuw nsw i64 %indvars.iv, 1
  %24 = getelementptr inbounds nuw double, ptr %1, i64 %23
  %25 = load double, ptr %24, align 8, !tbaa !3
  %26 = getelementptr inbounds nuw double, ptr %11, i64 %indvars.iv
  store double %25, ptr %26, align 8, !tbaa !3
  %27 = or disjoint i64 %23, 1
  %28 = getelementptr inbounds nuw double, ptr %1, i64 %27
  %29 = load double, ptr %28, align 8, !tbaa !3
  %30 = getelementptr inbounds nuw double, ptr %17, i64 %indvars.iv
  store double %29, ptr %30, align 8, !tbaa !3
  %indvars.iv.next = add nuw nsw i64 %indvars.iv, 1
  %exitcond.not = icmp eq i64 %indvars.iv.next, %wide.trip.count
  br i1 %exitcond.not, label %._crit_edge, label %.lr.ph, !llvm.loop !12

._crit_edge:                                      ; preds = %.lr.ph
  %31 = icmp sgt i32 %0, 2
  br i1 %31, label %32, label %._crit_edge.thread

32:                                               ; preds = %._crit_edge
  %33 = call ptr @delaunay_tri(ptr noundef nonnull %11, ptr noundef nonnull %17, i32 noundef %0, ptr noundef nonnull %4) #9
  br label %._crit_edge.thread

._crit_edge.thread:                               ; preds = %gv_calloc.exit50, %32, %._crit_edge
  %.046 = phi ptr [ %33, %32 ], [ null, %._crit_edge ], [ null, %gv_calloc.exit50 ]
  %34 = call ptr @SparseMatrix_new(i32 noundef %0, i32 noundef %0, i32 noundef 1, i32 noundef 1, i32 noundef 1) #9
  %35 = load i32, ptr %4, align 4, !tbaa !10
  %36 = icmp sgt i32 %35, 0
  br i1 %36, label %.lr.ph54, label %._crit_edge55

.lr.ph54:                                         ; preds = %._crit_edge.thread, %.lr.ph54
  %indvars.iv62 = phi i64 [ %indvars.iv.next63, %.lr.ph54 ], [ 0, %._crit_edge.thread ]
  %37 = shl nuw nsw i64 %indvars.iv62, 1
  %38 = getelementptr inbounds nuw i32, ptr %.046, i64 %37
  %39 = load i32, ptr %38, align 4, !tbaa !10
  %40 = or disjoint i64 %37, 1
  %41 = getelementptr inbounds nuw i32, ptr %.046, i64 %40
  %42 = load i32, ptr %41, align 4, !tbaa !10
  %43 = call ptr @SparseMatrix_coordinate_form_add_entry(ptr noundef %34, i32 noundef %39, i32 noundef %42, ptr noundef nonnull %3) #9
  %indvars.iv.next63 = add nuw nsw i64 %indvars.iv62, 1
  %44 = load i32, ptr %4, align 4, !tbaa !10
  %45 = sext i32 %44 to i64
  %46 = icmp slt i64 %indvars.iv.next63, %45
  br i1 %46, label %.lr.ph54, label %._crit_edge55, !llvm.loop !14

._crit_edge55:                                    ; preds = %.lr.ph54, %._crit_edge.thread
  %47 = icmp eq i32 %0, 2
  br i1 %47, label %.thread, label %49

.thread:                                          ; preds = %._crit_edge55
  %48 = call ptr @SparseMatrix_coordinate_form_add_entry(ptr noundef %34, i32 noundef 0, i32 noundef 1, ptr noundef nonnull %3) #9
  br label %.lr.ph58.preheader

49:                                               ; preds = %._crit_edge55
  br i1 %.not, label %._crit_edge59, label %.lr.ph58.preheader

.lr.ph58.preheader:                               ; preds = %.thread, %49
  %smax = call i32 @llvm.smax.i32(i32 %0, i32 1)
  br label %.lr.ph58

.lr.ph58:                                         ; preds = %.lr.ph58.preheader, %.lr.ph58
  %.256 = phi i32 [ %51, %.lr.ph58 ], [ 0, %.lr.ph58.preheader ]
  %50 = call ptr @SparseMatrix_coordinate_form_add_entry(ptr noundef %34, i32 noundef %.256, i32 noundef %.256, ptr noundef nonnull %3) #9
  %51 = add nuw nsw i32 %.256, 1
  %exitcond65.not = icmp eq i32 %51, %smax
  br i1 %exitcond65.not, label %._crit_edge59, label %.lr.ph58, !llvm.loop !15

._crit_edge59:                                    ; preds = %.lr.ph58, %49
  %52 = call ptr @SparseMatrix_from_coordinate_format(ptr noundef %34) #9
  call void @SparseMatrix_delete(ptr noundef %34) #9
  %53 = call ptr @SparseMatrix_symmetrize(ptr noundef %52, i1 noundef zeroext false) #9
  call void @SparseMatrix_delete(ptr noundef %52) #9
  call void @free(ptr noundef %.046) #9
  call void @free(ptr noundef %11) #9
  call void @free(ptr noundef %17) #9
  call void @llvm.lifetime.end.p0(i64 4, ptr nonnull %4) #9
  call void @llvm.lifetime.end.p0(i64 8, ptr nonnull %3) #9
  ret ptr %53
}